; Function Attrs: mustprogress nofree norecurse nosync nounwind willreturn memory(argmem: readwrite) uwtable
define hidden noundef i32 @_Z25bcdec__bitstream_read_bitP16bcdec__bitstream(ptr nocapture noundef %bstream) local_unnamed_addr #6 {
entry:
  %0 = load i64, ptr %bstream, align 8
  %1 = trunc i64 %0 to i32
  %conv1.i = and i32 %1, 1
  %high.i = getelementptr inbounds i8, ptr %bstream, i64 8
  %2 = load i64, ptr %high.i, align 8
  %or.i = tail call i64 @llvm.fshl.i64(i64 %2, i64 %0, i64 63)
  store i64 %or.i, ptr %bstream, align 8
  %shr11.i = lshr i64 %2, 1
  store i64 %shr11.i, ptr %high.i, align 8
  ret i32 %conv1.i
}